(dp1
S'OriginalConfig'
p2
ccopy_reg
_reconstructor
p3
(cWMCore.Configuration
Configuration
p4
c__builtin__
object
p5
NtRp6
(dp7
S'Site'
p8
g3
(cWMCore.Configuration
ConfigSection
p9
g5
NtRp10
(dp11
S'_internal_skipChecks'
p12
I00
sS'_internal_documentation'
p13
S''
sS'_internal_settings'
p14
c__builtin__
set
p15
((lp16
S'ignoreGlobalBlacklist'
p17
aS'storageSite'
p18
atRp19
sS'_internal_name'
p20
g8
sS'_internal_docstrings'
p21
(dp22
sS'_internal_children'
p23
g15
((ltRp24
sg18
S'T2_IT_Bari'
p25
sg17
I01
sS'_internal_parent_ref'
p26
NsbsS'_internal_sections'
p27
(lp28
S'General'
p29
aS'JobType'
p30
aS'Data'
p31
ag8
aS'User'
p32
aS'Debug'
p33
asg29
g3
(g9
g5
NtRp34
(dp35
S'transferLogs'
p36
I00
sg12
I00
sg13
S''
sg14
g15
((lp37
g36
aS'transferOutputs'
p38
aS'workArea'
p39
aS'requestName'
p40
atRp41
sg20
g29
sg21
(dp42
sg38
I01
sg23
g15
((ltRp43
sg40
S'SkimTau3Mu_rereco2017_Run2017C_Mini_v1'
p44
sg26
Nsg39
S'crab_projects'
p45
sbsS'_internal_webapps'
p46
(lp47
sg32
g3
(g9
g5
NtRp48
(dp49
g12
I00
sg13
S''
sg14
g15
((ltRp50
sg20
g32
sg21
(dp51
sg23
g15
((ltRp52
sg26
NsbsS'_internal_components'
p53
(lp54
sg33
g3
(g9
g5
NtRp55
(dp56
g12
I00
sg13
S''
sg14
g15
((ltRp57
sg20
g33
sg21
(dp58
sg23
g15
((ltRp59
sg26
Nsbsg31
g3
(g9
g5
NtRp60
(dp61
S'inputDataset'
p62
S'/DoubleMuonLowMass/Run2017C-17Nov2017-v1/MINIAOD'
p63
sS'outputDatasetTag'
p64
g44
sg12
I00
sS'splitting'
p65
S'Automatic'
p66
sg13
S''
sg14
g15
((lp67
g62
ag64
aS'publication'
p68
ag65
aS'inputDBS'
p69
aS'lumiMask'
p70
atRp71
sg20
g31
sg69
S'global'
p72
sg21
(dp73
sg23
g15
((ltRp74
sg26
Nsg70
S'https://cms-service-dqm.web.cern.ch/cms-service-dqm/CAF/certification/Collisions17/13TeV/ReReco/Cert_294927-306462_13TeV_EOY2017ReReco_Collisions17_JSON.txt'
p75
sg68
I01
sbsg30
g3
(g9
g5
NtRp76
(dp77
g12
I00
sg13
S''
sg14
g15
((lp78
S'psetName'
p79
aS'pluginName'
p80
aS'allowUndistributedCMSSW'
p81
atRp82
sg20
g30
sg21
(dp83
sg80
S'Analysis'
p84
sg23
g15
((ltRp85
sg81
I01
sg79
S'/lustrehome/fsimone/CMSSW_10_2_18/src/SkimTools/SkimTau3Mu/test/run_Data2017_PatAndTree_cfg.py'
p86
sg26
NsbsbsS'voGroup'
p87
S''
sS'Server'
p88
S'cmsweb.cern.ch'
p89
sS'instance'
p90
S'prod'
p91
sS'RequestName'
p92
V200623_175153:fsimone_crab_SkimTau3Mu_rereco2017_Run2017C_Mini_v1
p93
sS'voRole'
p94
S'NULL'
p95
sS'Port'
p96
S''
s.